; Function Attrs: mustprogress uwtable
define ptr @ggml_backend_init_by_type(i32 noundef %0, ptr noundef %1) local_unnamed_addr #0 {
  %3 = tail call ptr @ggml_backend_dev_by_type(i32 noundef %0)
  %.not = icmp eq ptr %3, null
  br i1 %.not, label %6, label %4

4:                                                ; preds = %2
  %5 = tail call ptr @ggml_backend_dev_init(ptr noundef nonnull %3, ptr noundef %1)
  br label %6

6:                                                ; preds = %2, %4
  %.0 = phi ptr [ %5, %4 ], [ null, %2 ]
  ret ptr %.0
}